target datalayout = "e-m:e-p270:32:32-p271:32:32-p272:64:64-i64:64-i128:128-f80:128-n8:16:32:64-S128"
target triple = "x86_64-pc-linux-gnu"

%struct.Curl_multi = type { i32, i32, i32, %struct.Curl_llist, %struct.Curl_llist, %struct.Curl_llist, %struct.Curl_llist, i64, ptr, ptr, ptr, ptr, %struct.Curl_hash, ptr, %struct.PslCache, ptr, ptr, i64, ptr, i64, ptr, i64, %struct.Curl_hash, %struct.Curl_hash, %struct.cpool, i64, i64, ptr, ptr, i64, %struct.curltime, [2 x i32], i32, i32, i8, i8 }
%struct.Curl_llist = type { ptr, ptr, ptr, i64 }
%struct.PslCache = type { ptr, i64, i8 }
%struct.Curl_hash = type { ptr, ptr, ptr, ptr, i64, i64 }
%struct.cpool = type { %struct.Curl_hash, i64, i64, i64, %struct.curltime, %struct.Curl_llist, ptr, ptr, ptr, ptr, i8 }
%struct.curltime = type { i64, i32 }
%struct.Curl_llist_node = type { ptr, ptr, ptr, ptr }
%struct.Curl_easy = type { i32, i64, i64, ptr, %struct.Curl_llist_node, %struct.Curl_llist_node, i32, i32, %struct.Curl_message, %struct.easy_pollset, %struct.Names, ptr, ptr, ptr, ptr, %struct.SingleRequest, %struct.UserDefined, ptr, ptr, ptr, %struct.Progress, %struct.UrlState, ptr, %struct.PureInfo, %struct.curl_tlssessioninfo }
%struct.Curl_message = type { %struct.Curl_llist_node, %struct.CURLMsg }
%struct.CURLMsg = type { i32, ptr, %union.anon }
%union.anon = type { ptr }
%struct.easy_pollset = type { [5 x i32], i32, [5 x i8] }
%struct.Names = type { ptr, i32 }
%struct.SingleRequest = type <{ i64, i64, i64, i64, %struct.curltime, i32, i32, i32, i32, i64, i32, i32, i8, i8, [2 x i8], i32, ptr, ptr, %struct.bufq, i64, i64, ptr, ptr, %union.anon.0, ptr, i8, i32, [3 x i8] }>
%struct.bufq = type { ptr, ptr, ptr, ptr, i64, i64, i64, i32 }
%union.anon.0 = type { ptr }
%struct.UserDefined = type <{ ptr, ptr, ptr, ptr, ptr, ptr, i64, i64, i64, ptr, ptr, i64, ptr, ptr, ptr, ptr, ptr, ptr, ptr, ptr, ptr, ptr, ptr, ptr, ptr, ptr, ptr, ptr, ptr, ptr, ptr, ptr, ptr, ptr, ptr, i64, i64, i64, i64, i64, i64, i64, i64, i64, ptr, ptr, %struct.curl_mimepart, ptr, ptr, ptr, i64, %struct.ssl_config_data, %struct.ssl_config_data, ptr, i16, i8, i8, %struct.ssl_general_config, i32, i32, i32, [4 x i8], ptr, ptr, i64, i32, i8, i8, i8, i8, ptr, ptr, ptr, i32, [4 x i8], [74 x ptr], [8 x ptr], i32, i32, i32, [4 x i8], ptr, i32, [4 x i8], ptr, ptr, ptr, ptr, ptr, i32, i32, i32, i32, i32, i32, i32, i32, i64, ptr, ptr, i64, ptr, i64, ptr, ptr, ptr, ptr, i32, i16, i16, i16, i8, i8, i8, i8, i8, i8, i8, i8, i64, [6 x i8] }>
%struct.curl_mimepart = type { ptr, ptr, i32, i32, ptr, ptr, ptr, ptr, ptr, ptr, ptr, ptr, ptr, ptr, ptr, i64, %struct.mime_state, ptr, %struct.mime_encoder_state, i64 }
%struct.mime_state = type { i32, ptr, i64 }
%struct.mime_encoder_state = type { i64, i64, i64, [256 x i8] }
%struct.ssl_config_data = type { %struct.ssl_primary_config, i64, ptr, ptr, ptr, ptr, ptr, ptr, ptr, i16 }
%struct.ssl_primary_config = type { ptr, ptr, ptr, ptr, ptr, ptr, ptr, ptr, ptr, ptr, ptr, ptr, ptr, ptr, i8, i32, i8, i8 }
%struct.ssl_general_config = type { i32 }
%struct.Progress = type { i64, %struct.pgrs_dir, %struct.pgrs_dir, i64, i64, i32, i32, i64, i64, i64, i64, i64, i64, i64, i64, i64, %struct.curltime, %struct.curltime, %struct.curltime, %struct.curltime, %struct.curltime, [6 x i64], [6 x %struct.curltime], i32, i8 }
%struct.pgrs_dir = type { i64, i64, i64, %struct.pgrs_measure }
%struct.pgrs_measure = type { %struct.curltime, i64 }
%struct.UrlState = type { %struct.curltime, i64, i64, %struct.dynbuf, ptr, i64, ptr, i32, i32, i32, ptr, i32, i64, i32, ptr, %struct.digestdata, %struct.digestdata, %struct.auth, %struct.auth, %struct.Curl_async, ptr, i8, %struct.curltime, %struct.Curl_tree, %struct.Curl_llist, [15 x %struct.time_node], ptr, ptr, i64, i64, i64, i64, [32 x i8], i64, ptr, ptr, ptr, %struct.urlpieces, ptr, ptr, ptr, ptr, ptr, i64, %struct.dynbuf, %struct.Curl_llist, [2 x %struct.curl_header], ptr, i32, ptr, ptr, %struct.store_netrc, %struct.dynamically_allocated_data, i8, i8, i8, i8, i32 }
%struct.digestdata = type { ptr, ptr, ptr, ptr, ptr, ptr, i32, i8, i8 }
%struct.auth = type { i64, i64, i64, i8 }
%struct.Curl_async = type { ptr, ptr, ptr, ptr, i32, i32, i8 }
%struct.Curl_tree = type { ptr, ptr, ptr, ptr, %struct.curltime, ptr }
%struct.time_node = type { %struct.Curl_llist_node, %struct.curltime, i32 }
%struct.urlpieces = type { ptr, ptr, ptr, ptr, ptr, ptr, ptr, ptr }
%struct.dynbuf = type { ptr, i64, i64, i64 }
%struct.curl_header = type { ptr, ptr, i64, i64, i32, ptr }
%struct.store_netrc = type { %struct.dynbuf, ptr, i8 }
%struct.dynamically_allocated_data = type { ptr, ptr, ptr, ptr, ptr, ptr, ptr, ptr, ptr, ptr, ptr, ptr, ptr, ptr }
%struct.PureInfo = type { i32, i32, i32, i64, i64, i64, i64, i64, i64, i64, ptr, ptr, i64, i32, %struct.ip_quadruple, i32, ptr, i32, %struct.curl_certinfo, i32, i8 }
%struct.ip_quadruple = type { [46 x i8], [46 x i8], i32, i32 }
%struct.curl_certinfo = type { i32, ptr }
%struct.curl_tlssessioninfo = type { i32, ptr }

@Curl_cfree = external global ptr, align 8
@mstate.finit = internal constant [18 x ptr] [ptr null, ptr null, ptr null, ptr @Curl_init_CONNECT, ptr null, ptr null, ptr null, ptr null, ptr null, ptr null, ptr null, ptr null, ptr @before_perform, ptr null, ptr null, ptr null, ptr @init_completed, ptr null], align 16

; Function Attrs: nounwind uwtable
define internal void @multi_xfer_bufs_free(ptr noundef %0) #0 {
  %2 = alloca ptr, align 8
  store ptr %0, ptr %2, align 8, !tbaa !9
  br label %3

3:                                                ; preds = %1
  br label %4

4:                                                ; preds = %3
  br label %5

5:                                                ; preds = %4
  %6 = load ptr, ptr @Curl_cfree, align 8, !tbaa !7
  %7 = load ptr, ptr %2, align 8, !tbaa !9
  %8 = getelementptr inbounds nuw %struct.Curl_multi, ptr %7, i32 0, i32 16
  %9 = load ptr, ptr %8, align 8, !tbaa !216
  call void %6(ptr noundef %9)
  %10 = load ptr, ptr %2, align 8, !tbaa !9
  %11 = getelementptr inbounds nuw %struct.Curl_multi, ptr %10, i32 0, i32 16
  store ptr null, ptr %11, align 8, !tbaa !216
  br label %12

12:                                               ; preds = %5
  %13 = load ptr, ptr %2, align 8, !tbaa !9
  %14 = getelementptr inbounds nuw %struct.Curl_multi, ptr %13, i32 0, i32 17
  store i64 0, ptr %14, align 8, !tbaa !217
  %15 = load ptr, ptr %2, align 8, !tbaa !9
  %16 = getelementptr inbounds nuw %struct.Curl_multi, ptr %15, i32 0, i32 35
  %17 = load i8, ptr %16, align 1
  %18 = and i8 %17, -33
  %19 = or i8 %18, 0
  store i8 %19, ptr %16, align 1
  br label %20

20:                                               ; preds = %12
  %21 = load ptr, ptr @Curl_cfree, align 8, !tbaa !7
  %22 = load ptr, ptr %2, align 8, !tbaa !9
  %23 = getelementptr inbounds nuw %struct.Curl_multi, ptr %22, i32 0, i32 18
  %24 = load ptr, ptr %23, align 8, !tbaa !218
  call void %21(ptr noundef %24)
  %25 = load ptr, ptr %2, align 8, !tbaa !9
  %26 = getelementptr inbounds nuw %struct.Curl_multi, ptr %25, i32 0, i32 18
  store ptr null, ptr %26, align 8, !tbaa !218
  br label %27

27:                                               ; preds = %20
  %28 = load ptr, ptr %2, align 8, !tbaa !9
  %29 = getelementptr inbounds nuw %struct.Curl_multi, ptr %28, i32 0, i32 19
  store i64 0, ptr %29, align 8, !tbaa !219
  %30 = load ptr, ptr %2, align 8, !tbaa !9
  %31 = getelementptr inbounds nuw %struct.Curl_multi, ptr %30, i32 0, i32 35
  %32 = load i8, ptr %31, align 1
  %33 = and i8 %32, -65
  %34 = or i8 %33, 0
  store i8 %34, ptr %31, align 1
  br label %35

35:                                               ; preds = %27
  %36 = load ptr, ptr @Curl_cfree, align 8, !tbaa !7
  %37 = load ptr, ptr %2, align 8, !tbaa !9
  %38 = getelementptr inbounds nuw %struct.Curl_multi, ptr %37, i32 0, i32 20
  %39 = load ptr, ptr %38, align 8, !tbaa !220
  call void %36(ptr noundef %39)
  %40 = load ptr, ptr %2, align 8, !tbaa !9
  %41 = getelementptr inbounds nuw %struct.Curl_multi, ptr %40, i32 0, i32 20
  store ptr null, ptr %41, align 8, !tbaa !220
  br label %42

42:                                               ; preds = %35
  %43 = load ptr, ptr %2, align 8, !tbaa !9
  %44 = getelementptr inbounds nuw %struct.Curl_multi, ptr %43, i32 0, i32 21
  store i64 0, ptr %44, align 8, !tbaa !221
  %45 = load ptr, ptr %2, align 8, !tbaa !9
  %46 = getelementptr inbounds nuw %struct.Curl_multi, ptr %45, i32 0, i32 35
  %47 = load i8, ptr %46, align 1
  %48 = and i8 %47, 127
  %49 = or i8 %48, 0
  store i8 %49, ptr %46, align 1
  ret void
}

; Function Attrs: nounwind uwtable
define hidden void @Curl_expire(ptr noundef %0, i64 noundef %1, i32 noundef %2) #0 {
  %4 = alloca ptr, align 8
  %5 = alloca i64, align 8
  %6 = alloca i32, align 4
  %7 = alloca %struct.curltime, align 8
  store ptr %0, ptr %4, align 8, !tbaa !43
  store i64 %1, ptr %5, align 8, !tbaa !3
  store i32 %2, ptr %6, align 4, !tbaa !30
  call void @llvm.lifetime.start.p0(i64 16, ptr %7) #9
  %8 = call { i64, i32 } @Curl_now()
  %9 = getelementptr inbounds nuw { i64, i32 }, ptr %7, i32 0, i32 0
  %10 = extractvalue { i64, i32 } %8, 0
  store i64 %10, ptr %9, align 8
  %11 = getelementptr inbounds nuw { i64, i32 }, ptr %7, i32 0, i32 1
  %12 = extractvalue { i64, i32 } %8, 1
  store i32 %12, ptr %11, align 8
  %13 = load ptr, ptr %4, align 8, !tbaa !43
  %14 = load i64, ptr %5, align 8, !tbaa !3
  %15 = load i32, ptr %6, align 4, !tbaa !30
  call void @expire_ex(ptr noundef %13, ptr noundef %7, i64 noundef %14, i32 noundef %15)
  call void @llvm.lifetime.end.p0(i64 16, ptr %7) #9
  ret void
}

; Function Attrs: nounwind uwtable
define internal void @mstate(ptr noundef %0, i32 noundef %1) #0 {
  %3 = alloca ptr, align 8
  %4 = alloca i32, align 4
  %5 = alloca i32, align 4
  %6 = alloca i32, align 4
  store ptr %0, ptr %3, align 8, !tbaa !43
  store i32 %1, ptr %4, align 4, !tbaa !30
  call void @llvm.lifetime.start.p0(i64 4, ptr %5) #9
  %7 = load ptr, ptr %3, align 8, !tbaa !43
  %8 = getelementptr inbounds nuw %struct.Curl_easy, ptr %7, i32 0, i32 6
  %9 = load i32, ptr %8, align 8, !tbaa !124
  store i32 %9, ptr %5, align 4, !tbaa !30
  %10 = load i32, ptr %5, align 4, !tbaa !30
  %11 = load i32, ptr %4, align 4, !tbaa !30
  %12 = icmp eq i32 %10, %11
  br i1 %12, label %13, label %14

13:                                               ; preds = %2
  store i32 1, ptr %6, align 4
  br label %54

14:                                               ; preds = %2
  %15 = load i32, ptr %4, align 4, !tbaa !30
  %16 = load ptr, ptr %3, align 8, !tbaa !43
  %17 = getelementptr inbounds nuw %struct.Curl_easy, ptr %16, i32 0, i32 6
  store i32 %15, ptr %17, align 8, !tbaa !124
  %18 = load i32, ptr %4, align 4, !tbaa !30
  %19 = icmp eq i32 %18, 16
  br i1 %19, label %20, label %41

20:                                               ; preds = %14
  br label %21

21:                                               ; preds = %20
  br label %22

22:                                               ; preds = %21
  br label %23

23:                                               ; preds = %22
  %24 = load ptr, ptr %3, align 8, !tbaa !43
  %25 = getelementptr inbounds nuw %struct.Curl_easy, ptr %24, i32 0, i32 11
  %26 = load ptr, ptr %25, align 8, !tbaa !100
  %27 = getelementptr inbounds nuw %struct.Curl_multi, ptr %26, i32 0, i32 2
  %28 = load i32, ptr %27, align 8, !tbaa !101
  %29 = add i32 %28, -1
  store i32 %29, ptr %27, align 8, !tbaa !101
  %30 = load ptr, ptr %3, align 8, !tbaa !43
  %31 = getelementptr inbounds nuw %struct.Curl_easy, ptr %30, i32 0, i32 11
  %32 = load ptr, ptr %31, align 8, !tbaa !100
  %33 = getelementptr inbounds nuw %struct.Curl_multi, ptr %32, i32 0, i32 2
  %34 = load i32, ptr %33, align 8, !tbaa !101
  %35 = icmp ne i32 %34, 0
  br i1 %35, label %40, label %36

36:                                               ; preds = %23
  %37 = load ptr, ptr %3, align 8, !tbaa !43
  %38 = getelementptr inbounds nuw %struct.Curl_easy, ptr %37, i32 0, i32 11
  %39 = load ptr, ptr %38, align 8, !tbaa !100
  call void @multi_xfer_bufs_free(ptr noundef %39)
  br label %40

40:                                               ; preds = %36, %23
  br label %41

41:                                               ; preds = %40, %14
  %42 = load i32, ptr %4, align 4, !tbaa !30
  %43 = zext i32 %42 to i64
  %44 = getelementptr inbounds nuw [18 x ptr], ptr @mstate.finit, i64 0, i64 %43
  %45 = load ptr, ptr %44, align 8, !tbaa !7
  %46 = icmp ne ptr %45, null
  br i1 %46, label %47, label %53

47:                                               ; preds = %41
  %48 = load i32, ptr %4, align 4, !tbaa !30
  %49 = zext i32 %48 to i64
  %50 = getelementptr inbounds nuw [18 x ptr], ptr @mstate.finit, i64 0, i64 %49
  %51 = load ptr, ptr %50, align 8, !tbaa !7
  %52 = load ptr, ptr %3, align 8, !tbaa !43
  call void %51(ptr noundef %52)
  br label %53

53:                                               ; preds = %47, %41
  store i32 0, ptr %6, align 4
  br label %54

54:                                               ; preds = %53, %13
  call void @llvm.lifetime.end.p0(i64 4, ptr %5) #9
  %55 = load i32, ptr %6, align 4
  switch i32 %55, label %57 [
    i32 0, label %56
    i32 1, label %56
  ]

56:                                               ; preds = %54, %54
  ret void

57:                                               ; preds = %54
  unreachable
}

; Function Attrs: nounwind uwtable
define internal void @move_pending_to_connect(ptr noundef %0, ptr noundef %1) #0 {
  %3 = alloca ptr, align 8
  %4 = alloca ptr, align 8
  store ptr %0, ptr %3, align 8, !tbaa !9
  store ptr %1, ptr %4, align 8, !tbaa !43
  br label %5

5:                                                ; preds = %2
  br label %6

6:                                                ; preds = %5
  %7 = load ptr, ptr %4, align 8, !tbaa !43
  %8 = getelementptr inbounds nuw %struct.Curl_easy, ptr %7, i32 0, i32 4
  call void @Curl_node_remove(ptr noundef %8)
  %9 = load ptr, ptr %3, align 8, !tbaa !9
  %10 = getelementptr inbounds nuw %struct.Curl_multi, ptr %9, i32 0, i32 4
  %11 = load ptr, ptr %4, align 8, !tbaa !43
  %12 = load ptr, ptr %4, align 8, !tbaa !43
  %13 = getelementptr inbounds nuw %struct.Curl_easy, ptr %12, i32 0, i32 4
  call void @Curl_llist_append(ptr noundef %10, ptr noundef %11, ptr noundef %13)
  %14 = load ptr, ptr %4, align 8, !tbaa !43
  call void @mstate(ptr noundef %14, i32 noundef 3)
  %15 = load ptr, ptr %4, align 8, !tbaa !43
  call void @Curl_expire(ptr noundef %15, i64 noundef 0, i32 noundef 8)
  ret void
}

; Function Attrs: nounwind uwtable
define internal void @process_pending_handles(ptr noundef %0) #0 {
  %2 = alloca ptr, align 8
  %3 = alloca ptr, align 8
  %4 = alloca ptr, align 8
  store ptr %0, ptr %2, align 8, !tbaa !9
  call void @llvm.lifetime.start.p0(i64 8, ptr %3) #9
  %5 = load ptr, ptr %2, align 8, !tbaa !9
  %6 = getelementptr inbounds nuw %struct.Curl_multi, ptr %5, i32 0, i32 5
  %7 = call ptr @Curl_llist_head(ptr noundef %6)
  store ptr %7, ptr %3, align 8, !tbaa !115
  %8 = load ptr, ptr %3, align 8, !tbaa !115
  %9 = icmp ne ptr %8, null
  br i1 %9, label %10, label %15

10:                                               ; preds = %1
  call void @llvm.lifetime.start.p0(i64 8, ptr %4) #9
  %11 = load ptr, ptr %3, align 8, !tbaa !115
  %12 = call ptr @Curl_node_elem(ptr noundef %11)
  store ptr %12, ptr %4, align 8, !tbaa !43
  %13 = load ptr, ptr %2, align 8, !tbaa !9
  %14 = load ptr, ptr %4, align 8, !tbaa !43
  call void @move_pending_to_connect(ptr noundef %13, ptr noundef %14)
  call void @llvm.lifetime.end.p0(i64 8, ptr %4) #9
  br label %15

15:                                               ; preds = %10, %1
  call void @llvm.lifetime.end.p0(i64 8, ptr %3) #9
  ret void
}