; Function Attrs: nounwind uwtable
define internal fastcc void @process_pending_handles(ptr noundef %0) unnamed_addr #0 {
  %2 = alloca %struct.curltime, align 8
  %3 = getelementptr inbounds nuw i8, ptr %0, i64 80
  %4 = tail call ptr @Curl_llist_head(ptr noundef nonnull %3) #19
  %.not = icmp eq ptr %4, null
  br i1 %.not, label %17, label %5

5:                                                ; preds = %1
  %6 = tail call ptr @Curl_node_elem(ptr noundef nonnull %4) #19
  %7 = getelementptr inbounds nuw i8, ptr %6, i64 32
  tail call void @Curl_node_remove(ptr noundef nonnull %7) #19
  %8 = getelementptr inbounds nuw i8, ptr %0, i64 48
  tail call void @Curl_llist_append(ptr noundef nonnull %8, ptr noundef %6, ptr noundef nonnull %7) #19
  %9 = getelementptr inbounds nuw i8, ptr %6, i64 96
  %10 = load i32, ptr %9, align 8, !tbaa !98
  %11 = icmp eq i32 %10, 3
  br i1 %11, label %move_pending_to_connect.exit, label %12

12:                                               ; preds = %5
  store i32 3, ptr %9, align 8, !tbaa !98
  tail call void @Curl_init_CONNECT(ptr noundef nonnull %6) #19
  br label %move_pending_to_connect.exit

move_pending_to_connect.exit:                     ; preds = %5, %12
  call void @llvm.lifetime.start.p0(i64 16, ptr nonnull %2) #19
  %13 = tail call { i64, i32 } @Curl_now() #19
  %14 = extractvalue { i64, i32 } %13, 0
  store i64 %14, ptr %2, align 8
  %15 = getelementptr inbounds nuw i8, ptr %2, i64 8
  %16 = extractvalue { i64, i32 } %13, 1
  store i32 %16, ptr %15, align 8
  call fastcc void @expire_ex(ptr noundef nonnull %6, ptr noundef %2, i64 noundef 0, i32 noundef 8)
  call void @llvm.lifetime.end.p0(i64 16, ptr nonnull %2) #19
  br label %17

17:                                               ; preds = %move_pending_to_connect.exit, %1
  ret void
}